target datalayout = "e-m:e-p270:32:32-p271:32:32-p272:64:64-i64:64-i128:128-f80:128-n8:16:32:64-S128"
target triple = "x86_64-pc-linux-gnu"

%struct.sfparse_parser = type { ptr, ptr, i32 }
%struct.sfparse_value = type { i32, i32, %union.anon }
%union.anon = type { %struct.sfparse_decimal }
%struct.sfparse_decimal = type { i64, i64 }
%struct.sfparse_vec = type { ptr, i64 }

@.str.1 = private unnamed_addr constant [107 x i8] c"generated/home/dtcxzyw/WorkSpace/Projects/compilers/llvm-opt-benchmark/bench/nghttp2/nghttp2/lib/sfparse.c\00", align 1
@.str.7 = private unnamed_addr constant [17 x i8] c"':' == *sfp->pos\00", align 1
@__PRETTY_FUNCTION__.parser_byteseq = private unnamed_addr constant [54 x i8] c"int parser_byteseq(sfparse_parser *, sfparse_value *)\00", align 1

; Function Attrs: nounwind uwtable
define internal i32 @parser_eof(ptr noundef %0) #0 {
  %2 = alloca ptr, align 8
  store ptr %0, ptr %2, align 8, !tbaa !3
  %3 = load ptr, ptr %2, align 8, !tbaa !3
  %4 = getelementptr inbounds nuw %struct.sfparse_parser, ptr %3, i32 0, i32 0
  %5 = load ptr, ptr %4, align 8, !tbaa !17
  %6 = load ptr, ptr %2, align 8, !tbaa !3
  %7 = getelementptr inbounds nuw %struct.sfparse_parser, ptr %6, i32 0, i32 1
  %8 = load ptr, ptr %7, align 8, !tbaa !22
  %9 = icmp eq ptr %5, %8
  %10 = zext i1 %9 to i32
  ret i32 %10
}

; Function Attrs: nounwind uwtable
define internal i32 @parser_byteseq(ptr noundef %0, ptr noundef %1) #0 {
  %3 = alloca i32, align 4
  %4 = alloca ptr, align 8
  %5 = alloca ptr, align 8
  %6 = alloca ptr, align 8
  %7 = alloca i32, align 4
  store ptr %0, ptr %4, align 8, !tbaa !3
  store ptr %1, ptr %5, align 8, !tbaa !10
  call void @llvm.lifetime.start.p0(i64 8, ptr %6) #5
  %8 = load ptr, ptr %4, align 8, !tbaa !3
  %9 = getelementptr inbounds nuw %struct.sfparse_parser, ptr %8, i32 0, i32 0
  %10 = load ptr, ptr %9, align 8, !tbaa !17
  %11 = load i8, ptr %10, align 1, !tbaa !18
  %12 = zext i8 %11 to i32
  %13 = icmp eq i32 58, %12
  br i1 %13, label %14, label %15

14:                                               ; preds = %2
  br label %16

15:                                               ; preds = %2
  call void @__assert_fail(ptr noundef @.str.7, ptr noundef @.str.1, i32 noundef 911, ptr noundef @__PRETTY_FUNCTION__.parser_byteseq) #6
  unreachable

16:                                               ; preds = %14
  %17 = load ptr, ptr %4, align 8, !tbaa !3
  %18 = getelementptr inbounds nuw %struct.sfparse_parser, ptr %17, i32 0, i32 0
  %19 = load ptr, ptr %18, align 8, !tbaa !17
  %20 = getelementptr inbounds nuw i8, ptr %19, i32 1
  store ptr %20, ptr %18, align 8, !tbaa !17
  store ptr %20, ptr %6, align 8, !tbaa !25
  br label %21

21:                                               ; preds = %96, %16
  %22 = load ptr, ptr %4, align 8, !tbaa !3
  %23 = call i32 @parser_eof(ptr noundef %22)
  %24 = icmp ne i32 %23, 0
  %25 = xor i1 %24, true
  br i1 %25, label %26, label %101

26:                                               ; preds = %21
  %27 = load ptr, ptr %4, align 8, !tbaa !3
  %28 = getelementptr inbounds nuw %struct.sfparse_parser, ptr %27, i32 0, i32 0
  %29 = load ptr, ptr %28, align 8, !tbaa !17
  %30 = load i8, ptr %29, align 1, !tbaa !18
  %31 = zext i8 %30 to i32
  switch i32 %31, label %95 [
    i32 43, label %32
    i32 47, label %32
    i32 48, label %32
    i32 49, label %32
    i32 50, label %32
    i32 51, label %32
    i32 52, label %32
    i32 53, label %32
    i32 54, label %32
    i32 55, label %32
    i32 56, label %32
    i32 57, label %32
    i32 65, label %32
    i32 66, label %32
    i32 67, label %32
    i32 68, label %32
    i32 69, label %32
    i32 70, label %32
    i32 71, label %32
    i32 72, label %32
    i32 73, label %32
    i32 74, label %32
    i32 75, label %32
    i32 76, label %32
    i32 77, label %32
    i32 78, label %32
    i32 79, label %32
    i32 80, label %32
    i32 81, label %32
    i32 82, label %32
    i32 83, label %32
    i32 84, label %32
    i32 85, label %32
    i32 86, label %32
    i32 87, label %32
    i32 88, label %32
    i32 89, label %32
    i32 90, label %32
    i32 97, label %32
    i32 98, label %32
    i32 99, label %32
    i32 100, label %32
    i32 101, label %32
    i32 102, label %32
    i32 103, label %32
    i32 104, label %32
    i32 105, label %32
    i32 106, label %32
    i32 107, label %32
    i32 108, label %32
    i32 109, label %32
    i32 110, label %32
    i32 111, label %32
    i32 112, label %32
    i32 113, label %32
    i32 114, label %32
    i32 115, label %32
    i32 116, label %32
    i32 117, label %32
    i32 118, label %32
    i32 119, label %32
    i32 120, label %32
    i32 121, label %32
    i32 122, label %32
    i32 61, label %33
    i32 58, label %83
  ]

32:                                               ; preds = %26, %26, %26, %26, %26, %26, %26, %26, %26, %26, %26, %26, %26, %26, %26, %26, %26, %26, %26, %26, %26, %26, %26, %26, %26, %26, %26, %26, %26, %26, %26, %26, %26, %26, %26, %26, %26, %26, %26, %26, %26, %26, %26, %26, %26, %26, %26, %26, %26, %26, %26, %26, %26, %26, %26, %26, %26, %26, %26, %26, %26, %26, %26, %26
  br label %96

33:                                               ; preds = %26
  %34 = load ptr, ptr %4, align 8, !tbaa !3
  %35 = getelementptr inbounds nuw %struct.sfparse_parser, ptr %34, i32 0, i32 0
  %36 = load ptr, ptr %35, align 8, !tbaa !17
  %37 = load ptr, ptr %6, align 8, !tbaa !25
  %38 = ptrtoint ptr %36 to i64
  %39 = ptrtoint ptr %37 to i64
  %40 = sub i64 %38, %39
  %41 = and i64 %40, 3
  switch i64 %41, label %70 [
    i64 0, label %42
    i64 1, label %42
    i64 2, label %43
    i64 3, label %65
  ]

42:                                               ; preds = %33, %33
  store i32 -1, ptr %3, align 4
  store i32 1, ptr %7, align 4
  br label %138

43:                                               ; preds = %33
  %44 = load ptr, ptr %4, align 8, !tbaa !3
  %45 = getelementptr inbounds nuw %struct.sfparse_parser, ptr %44, i32 0, i32 0
  %46 = load ptr, ptr %45, align 8, !tbaa !17
  %47 = getelementptr inbounds nuw i8, ptr %46, i32 1
  store ptr %47, ptr %45, align 8, !tbaa !17
  %48 = load ptr, ptr %4, align 8, !tbaa !3
  %49 = call i32 @parser_eof(ptr noundef %48)
  %50 = icmp ne i32 %49, 0
  br i1 %50, label %51, label %52

51:                                               ; preds = %43
  store i32 -1, ptr %3, align 4
  store i32 1, ptr %7, align 4
  br label %138

52:                                               ; preds = %43
  %53 = load ptr, ptr %4, align 8, !tbaa !3
  %54 = getelementptr inbounds nuw %struct.sfparse_parser, ptr %53, i32 0, i32 0
  %55 = load ptr, ptr %54, align 8, !tbaa !17
  %56 = load i8, ptr %55, align 1, !tbaa !18
  %57 = zext i8 %56 to i32
  %58 = icmp eq i32 %57, 61
  br i1 %58, label %59, label %64

59:                                               ; preds = %52
  %60 = load ptr, ptr %4, align 8, !tbaa !3
  %61 = getelementptr inbounds nuw %struct.sfparse_parser, ptr %60, i32 0, i32 0
  %62 = load ptr, ptr %61, align 8, !tbaa !17
  %63 = getelementptr inbounds nuw i8, ptr %62, i32 1
  store ptr %63, ptr %61, align 8, !tbaa !17
  br label %64

64:                                               ; preds = %59, %52
  br label %70

65:                                               ; preds = %33
  %66 = load ptr, ptr %4, align 8, !tbaa !3
  %67 = getelementptr inbounds nuw %struct.sfparse_parser, ptr %66, i32 0, i32 0
  %68 = load ptr, ptr %67, align 8, !tbaa !17
  %69 = getelementptr inbounds nuw i8, ptr %68, i32 1
  store ptr %69, ptr %67, align 8, !tbaa !17
  br label %70

70:                                               ; preds = %33, %65, %64
  %71 = load ptr, ptr %4, align 8, !tbaa !3
  %72 = call i32 @parser_eof(ptr noundef %71)
  %73 = icmp ne i32 %72, 0
  br i1 %73, label %81, label %74

74:                                               ; preds = %70
  %75 = load ptr, ptr %4, align 8, !tbaa !3
  %76 = getelementptr inbounds nuw %struct.sfparse_parser, ptr %75, i32 0, i32 0
  %77 = load ptr, ptr %76, align 8, !tbaa !17
  %78 = load i8, ptr %77, align 1, !tbaa !18
  %79 = zext i8 %78 to i32
  %80 = icmp ne i32 %79, 58
  br i1 %80, label %81, label %82

81:                                               ; preds = %74, %70
  store i32 -1, ptr %3, align 4
  store i32 1, ptr %7, align 4
  br label %138

82:                                               ; preds = %74
  br label %102

83:                                               ; preds = %26
  %84 = load ptr, ptr %4, align 8, !tbaa !3
  %85 = getelementptr inbounds nuw %struct.sfparse_parser, ptr %84, i32 0, i32 0
  %86 = load ptr, ptr %85, align 8, !tbaa !17
  %87 = load ptr, ptr %6, align 8, !tbaa !25
  %88 = ptrtoint ptr %86 to i64
  %89 = ptrtoint ptr %87 to i64
  %90 = sub i64 %88, %89
  %91 = and i64 %90, 3
  %92 = icmp eq i64 %91, 1
  br i1 %92, label %93, label %94

93:                                               ; preds = %83
  store i32 -1, ptr %3, align 4
  store i32 1, ptr %7, align 4
  br label %138

94:                                               ; preds = %83
  br label %102

95:                                               ; preds = %26
  store i32 -1, ptr %3, align 4
  store i32 1, ptr %7, align 4
  br label %138

96:                                               ; preds = %32
  %97 = load ptr, ptr %4, align 8, !tbaa !3
  %98 = getelementptr inbounds nuw %struct.sfparse_parser, ptr %97, i32 0, i32 0
  %99 = load ptr, ptr %98, align 8, !tbaa !17
  %100 = getelementptr inbounds nuw i8, ptr %99, i32 1
  store ptr %100, ptr %98, align 8, !tbaa !17
  br label %21, !llvm.loop !41

101:                                              ; preds = %21
  store i32 -1, ptr %3, align 4
  store i32 1, ptr %7, align 4
  br label %138

102:                                              ; preds = %94, %82
  %103 = load ptr, ptr %5, align 8, !tbaa !10
  %104 = icmp ne ptr %103, null
  br i1 %104, label %105, label %133

105:                                              ; preds = %102
  %106 = load ptr, ptr %5, align 8, !tbaa !10
  %107 = getelementptr inbounds nuw %struct.sfparse_value, ptr %106, i32 0, i32 0
  store i32 5, ptr %107, align 8, !tbaa !19
  %108 = load ptr, ptr %5, align 8, !tbaa !10
  %109 = getelementptr inbounds nuw %struct.sfparse_value, ptr %108, i32 0, i32 1
  store i32 0, ptr %109, align 4, !tbaa !21
  %110 = load ptr, ptr %4, align 8, !tbaa !3
  %111 = getelementptr inbounds nuw %struct.sfparse_parser, ptr %110, i32 0, i32 0
  %112 = load ptr, ptr %111, align 8, !tbaa !17
  %113 = load ptr, ptr %6, align 8, !tbaa !25
  %114 = ptrtoint ptr %112 to i64
  %115 = ptrtoint ptr %113 to i64
  %116 = sub i64 %114, %115
  %117 = load ptr, ptr %5, align 8, !tbaa !10
  %118 = getelementptr inbounds nuw %struct.sfparse_value, ptr %117, i32 0, i32 2
  %119 = getelementptr inbounds nuw %struct.sfparse_vec, ptr %118, i32 0, i32 1
  store i64 %116, ptr %119, align 8, !tbaa !18
  %120 = load ptr, ptr %5, align 8, !tbaa !10
  %121 = getelementptr inbounds nuw %struct.sfparse_value, ptr %120, i32 0, i32 2
  %122 = getelementptr inbounds nuw %struct.sfparse_vec, ptr %121, i32 0, i32 1
  %123 = load i64, ptr %122, align 8, !tbaa !18
  %124 = icmp eq i64 %123, 0
  br i1 %124, label %125, label %126

125:                                              ; preds = %105
  br label %128

126:                                              ; preds = %105
  %127 = load ptr, ptr %6, align 8, !tbaa !25
  br label %128

128:                                              ; preds = %126, %125
  %129 = phi ptr [ null, %125 ], [ %127, %126 ]
  %130 = load ptr, ptr %5, align 8, !tbaa !10
  %131 = getelementptr inbounds nuw %struct.sfparse_value, ptr %130, i32 0, i32 2
  %132 = getelementptr inbounds nuw %struct.sfparse_vec, ptr %131, i32 0, i32 0
  store ptr %129, ptr %132, align 8, !tbaa !18
  br label %133

133:                                              ; preds = %128, %102
  %134 = load ptr, ptr %4, align 8, !tbaa !3
  %135 = getelementptr inbounds nuw %struct.sfparse_parser, ptr %134, i32 0, i32 0
  %136 = load ptr, ptr %135, align 8, !tbaa !17
  %137 = getelementptr inbounds nuw i8, ptr %136, i32 1
  store ptr %137, ptr %135, align 8, !tbaa !17
  store i32 0, ptr %3, align 4
  store i32 1, ptr %7, align 4
  br label %138

138:                                              ; preds = %133, %101, %95, %93, %81, %51, %42
  call void @llvm.lifetime.end.p0(i64 8, ptr %6) #5
  %139 = load i32, ptr %3, align 4
  ret i32 %139
}