; Function Attrs: nounwind uwtable
define internal fastcc range(i32 -1, 1) i32 @parser_byteseq(ptr noundef captures(none) %0, ptr noundef writeonly %1) unnamed_addr #0 {
  %3 = load ptr, ptr %0, align 8, !tbaa !10
  %4 = load i8, ptr %3, align 1, !tbaa !12
  %5 = icmp eq i8 %4, 58
  br i1 %5, label %7, label %6

6:                                                ; preds = %2
  tail call void @__assert_fail(ptr noundef nonnull @.str.7, ptr noundef nonnull @.str.1, i32 noundef 911, ptr noundef nonnull @__PRETTY_FUNCTION__.parser_byteseq) #8
  unreachable

7:                                                ; preds = %2
  %.ptr52 = getelementptr inbounds nuw i8, ptr %3, i64 1
  %8 = getelementptr i8, ptr %0, i64 8
  %.val35 = load ptr, ptr %8, align 8, !tbaa !11
  store ptr %.ptr52, ptr %0, align 8, !tbaa !10
  %.not42 = icmp eq ptr %.ptr52, %.val35
  br i1 %.not42, label %.loopexit, label %.lr.ph

.lr.ph:                                           ; preds = %7, %22
  %storemerge43.idx = phi i64 [ %storemerge43.add, %22 ], [ 1, %7 ]
  %storemerge43.ptr = getelementptr inbounds nuw i8, ptr %3, i64 %storemerge43.idx
  %9 = load i8, ptr %storemerge43.ptr, align 1, !tbaa !12
  switch i8 %9, label %.loopexit [
    i8 43, label %22
    i8 47, label %22
    i8 48, label %22
    i8 49, label %22
    i8 50, label %22
    i8 51, label %22
    i8 52, label %22
    i8 53, label %22
    i8 54, label %22
    i8 55, label %22
    i8 56, label %22
    i8 57, label %22
    i8 65, label %22
    i8 66, label %22
    i8 67, label %22
    i8 68, label %22
    i8 69, label %22
    i8 70, label %22
    i8 71, label %22
    i8 72, label %22
    i8 73, label %22
    i8 74, label %22
    i8 75, label %22
    i8 76, label %22
    i8 77, label %22
    i8 78, label %22
    i8 79, label %22
    i8 80, label %22
    i8 81, label %22
    i8 82, label %22
    i8 83, label %22
    i8 84, label %22
    i8 85, label %22
    i8 86, label %22
    i8 87, label %22
    i8 88, label %22
    i8 89, label %22
    i8 90, label %22
    i8 97, label %22
    i8 98, label %22
    i8 99, label %22
    i8 100, label %22
    i8 101, label %22
    i8 102, label %22
    i8 103, label %22
    i8 104, label %22
    i8 105, label %22
    i8 106, label %22
    i8 107, label %22
    i8 108, label %22
    i8 109, label %22
    i8 110, label %22
    i8 111, label %22
    i8 112, label %22
    i8 113, label %22
    i8 114, label %22
    i8 115, label %22
    i8 116, label %22
    i8 117, label %22
    i8 118, label %22
    i8 119, label %22
    i8 120, label %22
    i8 121, label %22
    i8 122, label %22
    i8 61, label %10
    i8 58, label %19
  ]

10:                                               ; preds = %.lr.ph
  %gepdiff = add nuw i64 %storemerge43.idx, 3
  %11 = and i64 %gepdiff, 3
  switch i64 %11, label %default.unreachable48 [
    i64 0, label %.loopexit
    i64 1, label %.loopexit
    i64 2, label %12
    i64 3, label %.sink.split
  ]

12:                                               ; preds = %10
  %storemerge43.add51 = add nuw nsw i64 %storemerge43.idx, 1
  %.ptr56 = getelementptr inbounds nuw i8, ptr %3, i64 %storemerge43.add51
  store ptr %.ptr56, ptr %0, align 8, !tbaa !10
  %.not36 = icmp eq ptr %.ptr56, %.val35
  br i1 %.not36, label %.loopexit, label %13

13:                                               ; preds = %12
  %14 = load i8, ptr %.ptr56, align 1, !tbaa !12
  %15 = icmp eq i8 %14, 61
  br i1 %15, label %.sink.split, label %16

default.unreachable48:                            ; preds = %10
  unreachable

.sink.split:                                      ; preds = %10, %13
  %.sink = phi i64 [ 2, %13 ], [ 1, %10 ]
  %storemerge43.add50 = add nuw nsw i64 %storemerge43.idx, %.sink
  %.ptr55 = getelementptr inbounds nuw i8, ptr %3, i64 %storemerge43.add50
  store ptr %.ptr55, ptr %0, align 8, !tbaa !10
  br label %16

16:                                               ; preds = %.sink.split, %13
  %.val.idx = phi i64 [ %storemerge43.add51, %13 ], [ %storemerge43.add50, %.sink.split ]
  %.val.ptr = getelementptr inbounds nuw i8, ptr %3, i64 %.val.idx
  %.not37 = icmp eq ptr %.val.ptr, %.val35
  br i1 %.not37, label %.loopexit, label %17

17:                                               ; preds = %16
  %18 = load i8, ptr %.val.ptr, align 1, !tbaa !12
  %.not29 = icmp eq i8 %18, 58
  br i1 %.not29, label %23, label %.loopexit

19:                                               ; preds = %.lr.ph
  %20 = and i64 %storemerge43.idx, 3
  %21 = icmp eq i64 %20, 2
  br i1 %21, label %.loopexit, label %23

22:                                               ; preds = %.lr.ph, %.lr.ph, %.lr.ph, %.lr.ph, %.lr.ph, %.lr.ph, %.lr.ph, %.lr.ph, %.lr.ph, %.lr.ph, %.lr.ph, %.lr.ph, %.lr.ph, %.lr.ph, %.lr.ph, %.lr.ph, %.lr.ph, %.lr.ph, %.lr.ph, %.lr.ph, %.lr.ph, %.lr.ph, %.lr.ph, %.lr.ph, %.lr.ph, %.lr.ph, %.lr.ph, %.lr.ph, %.lr.ph, %.lr.ph, %.lr.ph, %.lr.ph, %.lr.ph, %.lr.ph, %.lr.ph, %.lr.ph, %.lr.ph, %.lr.ph, %.lr.ph, %.lr.ph, %.lr.ph, %.lr.ph, %.lr.ph, %.lr.ph, %.lr.ph, %.lr.ph, %.lr.ph, %.lr.ph, %.lr.ph, %.lr.ph, %.lr.ph, %.lr.ph, %.lr.ph, %.lr.ph, %.lr.ph, %.lr.ph, %.lr.ph, %.lr.ph, %.lr.ph, %.lr.ph, %.lr.ph, %.lr.ph, %.lr.ph, %.lr.ph
  %storemerge43.add = add nuw nsw i64 %storemerge43.idx, 1
  %.ptr53 = getelementptr inbounds nuw i8, ptr %3, i64 %storemerge43.add
  store ptr %.ptr53, ptr %0, align 8, !tbaa !10
  %.not = icmp eq ptr %.ptr53, %.val35
  br i1 %.not, label %.loopexit, label %.lr.ph, !llvm.loop !32

23:                                               ; preds = %19, %17
  %.idx = phi i64 [ %storemerge43.idx, %19 ], [ %.val.idx, %17 ]
  %.ptr = getelementptr inbounds nuw i8, ptr %3, i64 %.idx
  %.not30 = icmp eq ptr %1, null
  br i1 %.not30, label %30, label %24

24:                                               ; preds = %23
  store i32 5, ptr %1, align 8, !tbaa !15
  %25 = getelementptr inbounds nuw i8, ptr %1, i64 4
  store i32 0, ptr %25, align 4, !tbaa !17
  %gepdiff63 = add nsw i64 %.idx, -1
  %26 = getelementptr inbounds nuw i8, ptr %1, i64 8
  %27 = getelementptr inbounds nuw i8, ptr %1, i64 16
  store i64 %gepdiff63, ptr %27, align 8, !tbaa !12
  %28 = icmp eq i64 %.idx, 1
  %29 = select i1 %28, ptr null, ptr %.ptr52
  store ptr %29, ptr %26, align 8, !tbaa !12
  %.pre = load ptr, ptr %0, align 8, !tbaa !10
  br label %30

30:                                               ; preds = %24, %23
  %31 = phi ptr [ %.pre, %24 ], [ %.ptr, %23 ]
  %32 = getelementptr inbounds nuw i8, ptr %31, i64 1
  store ptr %32, ptr %0, align 8, !tbaa !10
  br label %.loopexit

.loopexit:                                        ; preds = %.lr.ph, %22, %7, %19, %16, %17, %12, %10, %10, %30
  %.0 = phi i32 [ 0, %30 ], [ -1, %10 ], [ -1, %10 ], [ -1, %12 ], [ -1, %17 ], [ -1, %16 ], [ -1, %19 ], [ -1, %7 ], [ -1, %22 ], [ -1, %.lr.ph ]
  ret i32 %.0
}